target datalayout = "e-m:e-p270:32:32-p271:32:32-p272:64:64-i64:64-i128:128-f80:128-n8:16:32:64-S128"
target triple = "x86_64-pc-linux-gnu"

@.str = private unnamed_addr constant [30 x i8] c"<Invalid length of SYSTEM ID>\00", align 1
@.str.1 = private unnamed_addr constant [27 x i8] c"%02x%02x.%02x%02x.%02x%02x\00", align 1
@.str.2 = private unnamed_addr constant [6 x i8] c".%02x\00", align 1
@.str.3 = private unnamed_addr constant [6 x i8] c"-%02x\00", align 1
@.str.4 = private unnamed_addr constant [5 x i8] c"%02x\00", align 1
@.str.5 = private unnamed_addr constant [6 x i8] c"%02x.\00", align 1

; Function Attrs: null_pointer_is_valid sspstrong uwtable
define hidden void @print_system_id_buf(ptr noundef %0, i32 noundef %1, ptr noundef %2, i32 noundef %3) #0 {
  %5 = alloca ptr, align 8
  %6 = alloca i32, align 4
  %7 = alloca ptr, align 8
  %8 = alloca i32, align 4
  %9 = alloca ptr, align 8
  %10 = alloca i32, align 4
  %11 = alloca i32, align 4
  store ptr %0, ptr %5, align 8
  store i32 %1, ptr %6, align 4
  store ptr %2, ptr %7, align 8
  store i32 %3, ptr %8, align 4
  call void @llvm.lifetime.start.p0(i64 8, ptr %9) #7
  call void @llvm.lifetime.start.p0(i64 4, ptr %10) #7
  %12 = load i32, ptr %6, align 4
  %13 = icmp sle i32 %12, 0
  br i1 %13, label %17, label %14

14:                                               ; preds = %4
  %15 = load i32, ptr %6, align 4
  %16 = icmp sgt i32 %15, 15
  br i1 %16, label %17, label %22

17:                                               ; preds = %14, %4
  %18 = load ptr, ptr %7, align 8
  %19 = load i32, ptr %8, align 4
  %20 = sext i32 %19 to i64
  %21 = call i64 @g_strlcpy(ptr noundef %18, ptr noundef @.str, i64 noundef %20)
  store i32 1, ptr %11, align 4
  br label %262

22:                                               ; preds = %14
  %23 = load ptr, ptr %7, align 8
  store ptr %23, ptr %9, align 8
  %24 = load i32, ptr %6, align 4
  %25 = icmp eq i32 6, %24
  br i1 %25, label %32, label %26

26:                                               ; preds = %22
  %27 = load i32, ptr %6, align 4
  %28 = icmp eq i32 7, %27
  br i1 %28, label %32, label %29

29:                                               ; preds = %26
  %30 = load i32, ptr %6, align 4
  %31 = icmp eq i32 8, %30
  br i1 %31, label %32, label %112

32:                                               ; preds = %29, %26, %22
  %33 = load ptr, ptr %9, align 8
  %34 = load i32, ptr %8, align 4
  %35 = sext i32 %34 to i64
  %36 = load ptr, ptr %9, align 8
  %37 = call i64 @llvm.objectsize.i64.p0(ptr %36, i1 false, i1 true, i1 true)
  %38 = load ptr, ptr %5, align 8
  %39 = getelementptr i8, ptr %38, i64 0
  %40 = load i8, ptr %39, align 1
  %41 = zext i8 %40 to i32
  %42 = load ptr, ptr %5, align 8
  %43 = getelementptr i8, ptr %42, i64 1
  %44 = load i8, ptr %43, align 1
  %45 = zext i8 %44 to i32
  %46 = load ptr, ptr %5, align 8
  %47 = getelementptr i8, ptr %46, i64 2
  %48 = load i8, ptr %47, align 1
  %49 = zext i8 %48 to i32
  %50 = load ptr, ptr %5, align 8
  %51 = getelementptr i8, ptr %50, i64 3
  %52 = load i8, ptr %51, align 1
  %53 = zext i8 %52 to i32
  %54 = load ptr, ptr %5, align 8
  %55 = getelementptr i8, ptr %54, i64 4
  %56 = load i8, ptr %55, align 1
  %57 = zext i8 %56 to i32
  %58 = load ptr, ptr %5, align 8
  %59 = getelementptr i8, ptr %58, i64 5
  %60 = load i8, ptr %59, align 1
  %61 = zext i8 %60 to i32
  %62 = call i32 (ptr, i64, i32, i64, ptr, ...) @__snprintf_chk(ptr noundef %33, i64 noundef %35, i32 noundef 2, i64 noundef %37, ptr noundef @.str.1, i32 noundef %41, i32 noundef %45, i32 noundef %49, i32 noundef %53, i32 noundef %57, i32 noundef %61)
  %63 = load ptr, ptr %9, align 8
  %64 = sext i32 %62 to i64
  %65 = getelementptr i8, ptr %63, i64 %64
  store ptr %65, ptr %9, align 8
  %66 = load i32, ptr %6, align 4
  %67 = icmp eq i32 7, %66
  br i1 %67, label %71, label %68

68:                                               ; preds = %32
  %69 = load i32, ptr %6, align 4
  %70 = icmp eq i32 8, %69
  br i1 %70, label %71, label %91

71:                                               ; preds = %68, %32
  %72 = load ptr, ptr %9, align 8
  %73 = load i32, ptr %8, align 4
  %74 = sext i32 %73 to i64
  %75 = load ptr, ptr %9, align 8
  %76 = load ptr, ptr %7, align 8
  %77 = ptrtoint ptr %75 to i64
  %78 = ptrtoint ptr %76 to i64
  %79 = sub i64 %77, %78
  %80 = sub i64 %74, %79
  %81 = load ptr, ptr %9, align 8
  %82 = call i64 @llvm.objectsize.i64.p0(ptr %81, i1 false, i1 true, i1 true)
  %83 = load ptr, ptr %5, align 8
  %84 = getelementptr i8, ptr %83, i64 6
  %85 = load i8, ptr %84, align 1
  %86 = zext i8 %85 to i32
  %87 = call i32 (ptr, i64, i32, i64, ptr, ...) @__snprintf_chk(ptr noundef %72, i64 noundef %80, i32 noundef 2, i64 noundef %82, ptr noundef @.str.2, i32 noundef %86)
  %88 = load ptr, ptr %9, align 8
  %89 = sext i32 %87 to i64
  %90 = getelementptr i8, ptr %88, i64 %89
  store ptr %90, ptr %9, align 8
  br label %91

91:                                               ; preds = %71, %68
  %92 = load i32, ptr %6, align 4
  %93 = icmp eq i32 8, %92
  br i1 %93, label %94, label %111

94:                                               ; preds = %91
  %95 = load ptr, ptr %9, align 8
  %96 = load i32, ptr %8, align 4
  %97 = sext i32 %96 to i64
  %98 = load ptr, ptr %9, align 8
  %99 = load ptr, ptr %7, align 8
  %100 = ptrtoint ptr %98 to i64
  %101 = ptrtoint ptr %99 to i64
  %102 = sub i64 %100, %101
  %103 = sub i64 %97, %102
  %104 = load ptr, ptr %9, align 8
  %105 = call i64 @llvm.objectsize.i64.p0(ptr %104, i1 false, i1 true, i1 true)
  %106 = load ptr, ptr %5, align 8
  %107 = getelementptr i8, ptr %106, i64 7
  %108 = load i8, ptr %107, align 1
  %109 = zext i8 %108 to i32
  %110 = call i32 (ptr, i64, i32, i64, ptr, ...) @__snprintf_chk(ptr noundef %95, i64 noundef %103, i32 noundef 2, i64 noundef %105, ptr noundef @.str.3, i32 noundef %109)
  br label %111

111:                                              ; preds = %94, %91
  br label %261

112:                                              ; preds = %29
  store i32 0, ptr %10, align 4
  br label %113

113:                                              ; preds = %118, %112
  %114 = load i32, ptr %10, align 4
  %115 = load i32, ptr %6, align 4
  %116 = sdiv i32 %115, 4
  %117 = icmp slt i32 %114, %116
  br i1 %117, label %118, label %207

118:                                              ; preds = %113
  %119 = load ptr, ptr %9, align 8
  %120 = load i32, ptr %8, align 4
  %121 = sext i32 %120 to i64
  %122 = load ptr, ptr %9, align 8
  %123 = load ptr, ptr %7, align 8
  %124 = ptrtoint ptr %122 to i64
  %125 = ptrtoint ptr %123 to i64
  %126 = sub i64 %124, %125
  %127 = sub i64 %121, %126
  %128 = load ptr, ptr %9, align 8
  %129 = call i64 @llvm.objectsize.i64.p0(ptr %128, i1 false, i1 true, i1 true)
  %130 = load ptr, ptr %5, align 8
  %131 = load i32, ptr %10, align 4
  %132 = add i32 %131, 1
  store i32 %132, ptr %10, align 4
  %133 = sext i32 %131 to i64
  %134 = getelementptr i8, ptr %130, i64 %133
  %135 = load i8, ptr %134, align 1
  %136 = zext i8 %135 to i32
  %137 = call i32 (ptr, i64, i32, i64, ptr, ...) @__snprintf_chk(ptr noundef %119, i64 noundef %127, i32 noundef 2, i64 noundef %129, ptr noundef @.str.4, i32 noundef %136)
  %138 = load ptr, ptr %9, align 8
  %139 = sext i32 %137 to i64
  %140 = getelementptr i8, ptr %138, i64 %139
  store ptr %140, ptr %9, align 8
  %141 = load ptr, ptr %9, align 8
  %142 = load i32, ptr %8, align 4
  %143 = sext i32 %142 to i64
  %144 = load ptr, ptr %9, align 8
  %145 = load ptr, ptr %7, align 8
  %146 = ptrtoint ptr %144 to i64
  %147 = ptrtoint ptr %145 to i64
  %148 = sub i64 %146, %147
  %149 = sub i64 %143, %148
  %150 = load ptr, ptr %9, align 8
  %151 = call i64 @llvm.objectsize.i64.p0(ptr %150, i1 false, i1 true, i1 true)
  %152 = load ptr, ptr %5, align 8
  %153 = load i32, ptr %10, align 4
  %154 = add i32 %153, 1
  store i32 %154, ptr %10, align 4
  %155 = sext i32 %153 to i64
  %156 = getelementptr i8, ptr %152, i64 %155
  %157 = load i8, ptr %156, align 1
  %158 = zext i8 %157 to i32
  %159 = call i32 (ptr, i64, i32, i64, ptr, ...) @__snprintf_chk(ptr noundef %141, i64 noundef %149, i32 noundef 2, i64 noundef %151, ptr noundef @.str.4, i32 noundef %158)
  %160 = load ptr, ptr %9, align 8
  %161 = sext i32 %159 to i64
  %162 = getelementptr i8, ptr %160, i64 %161
  store ptr %162, ptr %9, align 8
  %163 = load ptr, ptr %9, align 8
  %164 = load i32, ptr %8, align 4
  %165 = sext i32 %164 to i64
  %166 = load ptr, ptr %9, align 8
  %167 = load ptr, ptr %7, align 8
  %168 = ptrtoint ptr %166 to i64
  %169 = ptrtoint ptr %167 to i64
  %170 = sub i64 %168, %169
  %171 = sub i64 %165, %170
  %172 = load ptr, ptr %9, align 8
  %173 = call i64 @llvm.objectsize.i64.p0(ptr %172, i1 false, i1 true, i1 true)
  %174 = load ptr, ptr %5, align 8
  %175 = load i32, ptr %10, align 4
  %176 = add i32 %175, 1
  store i32 %176, ptr %10, align 4
  %177 = sext i32 %175 to i64
  %178 = getelementptr i8, ptr %174, i64 %177
  %179 = load i8, ptr %178, align 1
  %180 = zext i8 %179 to i32
  %181 = call i32 (ptr, i64, i32, i64, ptr, ...) @__snprintf_chk(ptr noundef %163, i64 noundef %171, i32 noundef 2, i64 noundef %173, ptr noundef @.str.4, i32 noundef %180)
  %182 = load ptr, ptr %9, align 8
  %183 = sext i32 %181 to i64
  %184 = getelementptr i8, ptr %182, i64 %183
  store ptr %184, ptr %9, align 8
  %185 = load ptr, ptr %9, align 8
  %186 = load i32, ptr %8, align 4
  %187 = sext i32 %186 to i64
  %188 = load ptr, ptr %9, align 8
  %189 = load ptr, ptr %7, align 8
  %190 = ptrtoint ptr %188 to i64
  %191 = ptrtoint ptr %189 to i64
  %192 = sub i64 %190, %191
  %193 = sub i64 %187, %192
  %194 = load ptr, ptr %9, align 8
  %195 = call i64 @llvm.objectsize.i64.p0(ptr %194, i1 false, i1 true, i1 true)
  %196 = load ptr, ptr %5, align 8
  %197 = load i32, ptr %10, align 4
  %198 = add i32 %197, 1
  store i32 %198, ptr %10, align 4
  %199 = sext i32 %197 to i64
  %200 = getelementptr i8, ptr %196, i64 %199
  %201 = load i8, ptr %200, align 1
  %202 = zext i8 %201 to i32
  %203 = call i32 (ptr, i64, i32, i64, ptr, ...) @__snprintf_chk(ptr noundef %185, i64 noundef %193, i32 noundef 2, i64 noundef %195, ptr noundef @.str.5, i32 noundef %202)
  %204 = load ptr, ptr %9, align 8
  %205 = sext i32 %203 to i64
  %206 = getelementptr i8, ptr %204, i64 %205
  store ptr %206, ptr %9, align 8
  br label %113, !llvm.loop !6

207:                                              ; preds = %113
  %208 = load i32, ptr %10, align 4
  %209 = icmp eq i32 1, %208
  br i1 %209, label %210, label %231

210:                                              ; preds = %207
  %211 = load ptr, ptr %9, align 8
  %212 = getelementptr i8, ptr %211, i32 -1
  store ptr %212, ptr %9, align 8
  %213 = load ptr, ptr %9, align 8
  %214 = load i32, ptr %8, align 4
  %215 = sext i32 %214 to i64
  %216 = load ptr, ptr %9, align 8
  %217 = load ptr, ptr %7, align 8
  %218 = ptrtoint ptr %216 to i64
  %219 = ptrtoint ptr %217 to i64
  %220 = sub i64 %218, %219
  %221 = sub i64 %215, %220
  %222 = load ptr, ptr %9, align 8
  %223 = call i64 @llvm.objectsize.i64.p0(ptr %222, i1 false, i1 true, i1 true)
  %224 = load ptr, ptr %5, align 8
  %225 = load i32, ptr %10, align 4
  %226 = sext i32 %225 to i64
  %227 = getelementptr i8, ptr %224, i64 %226
  %228 = load i8, ptr %227, align 1
  %229 = zext i8 %228 to i32
  %230 = call i32 (ptr, i64, i32, i64, ptr, ...) @__snprintf_chk(ptr noundef %213, i64 noundef %221, i32 noundef 2, i64 noundef %223, ptr noundef @.str.2, i32 noundef %229)
  br label %260

231:                                              ; preds = %207
  br label %232

232:                                              ; preds = %236, %231
  %233 = load i32, ptr %10, align 4
  %234 = load i32, ptr %6, align 4
  %235 = icmp slt i32 %233, %234
  br i1 %235, label %236, label %259

236:                                              ; preds = %232
  %237 = load ptr, ptr %9, align 8
  %238 = load i32, ptr %8, align 4
  %239 = sext i32 %238 to i64
  %240 = load ptr, ptr %9, align 8
  %241 = load ptr, ptr %7, align 8
  %242 = ptrtoint ptr %240 to i64
  %243 = ptrtoint ptr %241 to i64
  %244 = sub i64 %242, %243
  %245 = sub i64 %239, %244
  %246 = load ptr, ptr %9, align 8
  %247 = call i64 @llvm.objectsize.i64.p0(ptr %246, i1 false, i1 true, i1 true)
  %248 = load ptr, ptr %5, align 8
  %249 = load i32, ptr %10, align 4
  %250 = add i32 %249, 1
  store i32 %250, ptr %10, align 4
  %251 = sext i32 %249 to i64
  %252 = getelementptr i8, ptr %248, i64 %251
  %253 = load i8, ptr %252, align 1
  %254 = zext i8 %253 to i32
  %255 = call i32 (ptr, i64, i32, i64, ptr, ...) @__snprintf_chk(ptr noundef %237, i64 noundef %245, i32 noundef 2, i64 noundef %247, ptr noundef @.str.4, i32 noundef %254)
  %256 = load ptr, ptr %9, align 8
  %257 = sext i32 %255 to i64
  %258 = getelementptr i8, ptr %256, i64 %257
  store ptr %258, ptr %9, align 8
  br label %232, !llvm.loop !8

259:                                              ; preds = %232
  br label %260

260:                                              ; preds = %259, %210
  br label %261

261:                                              ; preds = %260, %111
  store i32 0, ptr %11, align 4
  br label %262

262:                                              ; preds = %261, %17
  call void @llvm.lifetime.end.p0(i64 4, ptr %10) #7
  call void @llvm.lifetime.end.p0(i64 8, ptr %9) #7
  %263 = load i32, ptr %11, align 4
  switch i32 %263, label %265 [
    i32 0, label %264
    i32 1, label %264
  ]

264:                                              ; preds = %262, %262
  ret void

265:                                              ; preds = %262
  unreachable
}